; ModuleID = '22/367.c'
source_filename = "22/367.c"
target datalayout = "e-m:e-p270:32:32-p271:32:32-p272:64:64-i64:64-f80:128-n8:16:32:64-S128"
target triple = "x86_64-pc-linux-gnu"

@str = common dso_local global [1500 x i8] zeroinitializer, align 16
@.str = private unnamed_addr constant [3 x i8] c"No\00", align 1
@.str.1 = private unnamed_addr constant [4 x i8] c"%d\0A\00", align 1

; Function Attrs: noinline nounwind uwtable
define dso_local void @main() #0 {
  %1 = alloca i32, align 4
  %2 = alloca i32, align 4
  %3 = alloca i32, align 4
  %4 = alloca i32, align 4
  %5 = alloca i32, align 4
  %6 = alloca [300 x i32], align 16
  store i32 0, i32* %3, align 4
  store i32 0, i32* %4, align 4
  %7 = call i32 (i8*, ...) bitcast (i32 (...)* @gets to i32 (i8*, ...)*)(i8* getelementptr inbounds ([1500 x i8], [1500 x i8]* @str, i64 0, i64 0))
  %8 = call i64 @strlen(i8* getelementptr inbounds ([1500 x i8], [1500 x i8]* @str, i64 0, i64 0)) #3
  %9 = trunc i64 %8 to i32
  store i32 %9, i32* %1, align 4
  store i32 0, i32* %2, align 4
  br label %10

10:                                               ; preds = %53, %0
  %11 = load i32, i32* %2, align 4
  %12 = load i32, i32* %1, align 4
  %13 = icmp slt i32 %11, %12
  br i1 %13, label %14, label %56

14:                                               ; preds = %10
  %15 = load i32, i32* %2, align 4
  %16 = sext i32 %15 to i64
  %17 = getelementptr inbounds [1500 x i8], [1500 x i8]* @str, i64 0, i64 %16
  %18 = load i8, i8* %17, align 1
  %19 = sext i8 %18 to i32
  %20 = icmp eq i32 %19, 44
  br i1 %20, label %21, label %22

21:                                               ; preds = %14
  store i32 0, i32* %4, align 4
  br label %32

22:                                               ; preds = %14
  %23 = load i32, i32* %4, align 4
  %24 = mul nsw i32 %23, 10
  %25 = load i32, i32* %2, align 4
  %26 = sext i32 %25 to i64
  %27 = getelementptr inbounds [1500 x i8], [1500 x i8]* @str, i64 0, i64 %26
  %28 = load i8, i8* %27, align 1
  %29 = sext i8 %28 to i32
  %30 = add nsw i32 %24, %29
  %31 = sub nsw i32 %30, 48
  store i32 %31, i32* %4, align 4
  br label %32

32:                                               ; preds = %22, %21
  %33 = load i32, i32* %2, align 4
  %34 = add nsw i32 %33, 1
  %35 = sext i32 %34 to i64
  %36 = getelementptr inbounds [1500 x i8], [1500 x i8]* @str, i64 0, i64 %35
  %37 = load i8, i8* %36, align 1
  %38 = sext i8 %37 to i32
  %39 = icmp eq i32 %38, 44
  br i1 %39, label %45, label %40

40:                                               ; preds = %32
  %41 = load i32, i32* %2, align 4
  %42 = load i32, i32* %1, align 4
  %43 = sub nsw i32 %42, 1
  %44 = icmp eq i32 %41, %43
  br i1 %44, label %45, label %52

45:                                               ; preds = %40, %32
  %46 = load i32, i32* %4, align 4
  %47 = load i32, i32* %3, align 4
  %48 = sext i32 %47 to i64
  %49 = getelementptr inbounds [300 x i32], [300 x i32]* %6, i64 0, i64 %48
  store i32 %46, i32* %49, align 4
  %50 = load i32, i32* %3, align 4
  %51 = add nsw i32 %50, 1
  store i32 %51, i32* %3, align 4
  br label %52

52:                                               ; preds = %45, %40
  br label %53

53:                                               ; preds = %52
  %54 = load i32, i32* %2, align 4
  %55 = add nsw i32 %54, 1
  store i32 %55, i32* %2, align 4
  br label %10

56:                                               ; preds = %10
  store i32 0, i32* %2, align 4
  br label %57

57:                                               ; preds = %99, %56
  %58 = load i32, i32* %2, align 4
  %59 = load i32, i32* %3, align 4
  %60 = icmp slt i32 %58, %59
  br i1 %60, label %61, label %102

61:                                               ; preds = %57
  %62 = load i32, i32* %2, align 4
  %63 = add nsw i32 %62, 1
  store i32 %63, i32* %5, align 4
  br label %64

64:                                               ; preds = %95, %61
  %65 = load i32, i32* %5, align 4
  %66 = load i32, i32* %3, align 4
  %67 = icmp slt i32 %65, %66
  br i1 %67, label %68, label %98

68:                                               ; preds = %64
  %69 = load i32, i32* %2, align 4
  %70 = sext i32 %69 to i64
  %71 = getelementptr inbounds [300 x i32], [300 x i32]* %6, i64 0, i64 %70
  %72 = load i32, i32* %71, align 4
  %73 = load i32, i32* %5, align 4
  %74 = sext i32 %73 to i64
  %75 = getelementptr inbounds [300 x i32], [300 x i32]* %6, i64 0, i64 %74
  %76 = load i32, i32* %75, align 4
  %77 = icmp slt i32 %72, %76
  br i1 %77, label %78, label %94

78:                                               ; preds = %68
  %79 = load i32, i32* %2, align 4
  %80 = sext i32 %79 to i64
  %81 = getelementptr inbounds [300 x i32], [300 x i32]* %6, i64 0, i64 %80
  %82 = load i32, i32* %81, align 4
  store i32 %82, i32* %4, align 4
  %83 = load i32, i32* %5, align 4
  %84 = sext i32 %83 to i64
  %85 = getelementptr inbounds [300 x i32], [300 x i32]* %6, i64 0, i64 %84
  %86 = load i32, i32* %85, align 4
  %87 = load i32, i32* %2, align 4
  %88 = sext i32 %87 to i64
  %89 = getelementptr inbounds [300 x i32], [300 x i32]* %6, i64 0, i64 %88
  store i32 %86, i32* %89, align 4
  %90 = load i32, i32* %4, align 4
  %91 = load i32, i32* %5, align 4
  %92 = sext i32 %91 to i64
  %93 = getelementptr inbounds [300 x i32], [300 x i32]* %6, i64 0, i64 %92
  store i32 %90, i32* %93, align 4
  br label %94

94:                                               ; preds = %78, %68
  br label %95

95:                                               ; preds = %94
  %96 = load i32, i32* %5, align 4
  %97 = add nsw i32 %96, 1
  store i32 %97, i32* %5, align 4
  br label %64

98:                                               ; preds = %64
  br label %99

99:                                               ; preds = %98
  %100 = load i32, i32* %2, align 4
  %101 = add nsw i32 %100, 1
  store i32 %101, i32* %2, align 4
  br label %57

102:                                              ; preds = %57
  %103 = load i32, i32* %3, align 4
  %104 = sub nsw i32 %103, 1
  %105 = sext i32 %104 to i64
  %106 = getelementptr inbounds [300 x i32], [300 x i32]* %6, i64 0, i64 %105
  %107 = load i32, i32* %106, align 4
  %108 = getelementptr inbounds [300 x i32], [300 x i32]* %6, i64 0, i64 0
  %109 = load i32, i32* %108, align 16
  %110 = icmp eq i32 %107, %109
  br i1 %110, label %111, label %113

111:                                              ; preds = %102
  %112 = call i32 (i8*, ...) @printf(i8* getelementptr inbounds ([3 x i8], [3 x i8]* @.str, i64 0, i64 0))
  br label %137

113:                                              ; preds = %102
  store i32 1, i32* %2, align 4
  br label %114

114:                                              ; preds = %133, %113
  %115 = load i32, i32* %2, align 4
  %116 = load i32, i32* %3, align 4
  %117 = icmp slt i32 %115, %116
  br i1 %117, label %118, label %136

118:                                              ; preds = %114
  %119 = load i32, i32* %2, align 4
  %120 = sext i32 %119 to i64
  %121 = getelementptr inbounds [300 x i32], [300 x i32]* %6, i64 0, i64 %120
  %122 = load i32, i32* %121, align 4
  %123 = getelementptr inbounds [300 x i32], [300 x i32]* %6, i64 0, i64 0
  %124 = load i32, i32* %123, align 16
  %125 = icmp ne i32 %122, %124
  br i1 %125, label %126, label %132

126:                                              ; preds = %118
  %127 = load i32, i32* %2, align 4
  %128 = sext i32 %127 to i64
  %129 = getelementptr inbounds [300 x i32], [300 x i32]* %6, i64 0, i64 %128
  %130 = load i32, i32* %129, align 4
  %131 = call i32 (i8*, ...) @printf(i8* getelementptr inbounds ([4 x i8], [4 x i8]* @.str.1, i64 0, i64 0), i32 %130)
  br label %136

132:                                              ; preds = %118
  br label %133

133:                                              ; preds = %132
  %134 = load i32, i32* %2, align 4
  %135 = add nsw i32 %134, 1
  store i32 %135, i32* %2, align 4
  br label %114

136:                                              ; preds = %126, %114
  br label %137

137:                                              ; preds = %136, %111
  ret void
}

declare dso_local i32 @gets(...) #1

; Function Attrs: nounwind readonly
declare dso_local i64 @strlen(i8*) #2

declare dso_local i32 @printf(i8*, ...) #1


!llvm.module.flags = !{!0}
!llvm.ident = !{!1}

!0 = !{i32 1, !"wchar_size", i32 4}
!1 = !{!"clang version 10.0.0-4ubuntu1 "}
